target datalayout = "e-m:e-p270:32:32-p271:32:32-p272:64:64-i64:64-i128:128-f80:128-n8:16:32:64-S128"
target triple = "x86_64-pc-linux-gnu"

%struct.LOCKTAG = type { i32, i32, i32, i16, i8, i8 }
%struct.StringInfoData = type { ptr, i32, i32, i32 }
%struct.DEADLOCK_INFO = type { %struct.LOCKTAG, i32, i32 }

@deadlockDetails = internal global ptr null, align 8
@.str.1 = private unnamed_addr constant [11 x i8] c"deadlock.c\00", align 1
@nDeadlockDetails = internal global i32 0, align 4
@.str.2 = private unnamed_addr constant [54 x i8] c"Process %d waits for %s on %s; blocked by process %d.\00", align 1
@.str.3 = private unnamed_addr constant [15 x i8] c"Process %d: %s\00", align 1
@.str.4 = private unnamed_addr constant [18 x i8] c"deadlock detected\00", align 1
@.str.5 = private unnamed_addr constant [3 x i8] c"%s\00", align 1
@.str.6 = private unnamed_addr constant [34 x i8] c"See server log for query details.\00", align 1
@__func__.DeadLockReport = private unnamed_addr constant [15 x i8] c"DeadLockReport\00", align 1

; Function Attrs: noreturn nounwind uwtable
define dso_local void @DeadLockReport() #5 {
  %1 = alloca %struct.StringInfoData, align 8
  %2 = alloca %struct.StringInfoData, align 8
  %3 = alloca %struct.StringInfoData, align 8
  %4 = alloca i32, align 4
  %5 = alloca ptr, align 8
  %6 = alloca i32, align 4
  %7 = alloca ptr, align 8
  call void @llvm.lifetime.start.p0(i64 24, ptr %1) #8
  call void @llvm.lifetime.start.p0(i64 24, ptr %2) #8
  call void @llvm.lifetime.start.p0(i64 24, ptr %3) #8
  call void @llvm.lifetime.start.p0(i64 4, ptr %4) #8
  call void @initStringInfo(ptr noundef %1)
  call void @initStringInfo(ptr noundef %2)
  call void @initStringInfo(ptr noundef %3)
  store i32 0, ptr %4, align 4
  br label %8

8:                                                ; preds = %53, %0
  %9 = load i32, ptr %4, align 4
  %10 = load i32, ptr @nDeadlockDetails, align 4
  %11 = icmp slt i32 %9, %10
  br i1 %11, label %12, label %56

12:                                               ; preds = %8
  call void @llvm.lifetime.start.p0(i64 8, ptr %5) #8
  %13 = load ptr, ptr @deadlockDetails, align 8
  %14 = load i32, ptr %4, align 4
  %15 = sext i32 %14 to i64
  %16 = getelementptr inbounds %struct.DEADLOCK_INFO, ptr %13, i64 %15
  store ptr %16, ptr %5, align 8
  call void @llvm.lifetime.start.p0(i64 4, ptr %6) #8
  %17 = load i32, ptr %4, align 4
  %18 = load i32, ptr @nDeadlockDetails, align 4
  %19 = sub i32 %18, 1
  %20 = icmp slt i32 %17, %19
  br i1 %20, label %21, label %26

21:                                               ; preds = %12
  %22 = load ptr, ptr %5, align 8
  %23 = getelementptr inbounds %struct.DEADLOCK_INFO, ptr %22, i64 1
  %24 = getelementptr inbounds nuw %struct.DEADLOCK_INFO, ptr %23, i32 0, i32 2
  %25 = load i32, ptr %24, align 4
  store i32 %25, ptr %6, align 4
  br label %31

26:                                               ; preds = %12
  %27 = load ptr, ptr @deadlockDetails, align 8
  %28 = getelementptr inbounds %struct.DEADLOCK_INFO, ptr %27, i64 0
  %29 = getelementptr inbounds nuw %struct.DEADLOCK_INFO, ptr %28, i32 0, i32 2
  %30 = load i32, ptr %29, align 4
  store i32 %30, ptr %6, align 4
  br label %31

31:                                               ; preds = %26, %21
  call void @resetStringInfo(ptr noundef %3)
  %32 = load ptr, ptr %5, align 8
  %33 = getelementptr inbounds nuw %struct.DEADLOCK_INFO, ptr %32, i32 0, i32 0
  call void @DescribeLockTag(ptr noundef %3, ptr noundef %33)
  %34 = load i32, ptr %4, align 4
  %35 = icmp sgt i32 %34, 0
  br i1 %35, label %36, label %37

36:                                               ; preds = %31
  call void @appendStringInfoChar(ptr noundef %1, i8 noundef signext 10)
  br label %37

37:                                               ; preds = %36, %31
  %38 = load ptr, ptr %5, align 8
  %39 = getelementptr inbounds nuw %struct.DEADLOCK_INFO, ptr %38, i32 0, i32 2
  %40 = load i32, ptr %39, align 4
  %41 = load ptr, ptr %5, align 8
  %42 = getelementptr inbounds nuw %struct.DEADLOCK_INFO, ptr %41, i32 0, i32 0
  %43 = getelementptr inbounds nuw %struct.LOCKTAG, ptr %42, i32 0, i32 5
  %44 = load i8, ptr %43, align 1
  %45 = zext i8 %44 to i16
  %46 = load ptr, ptr %5, align 8
  %47 = getelementptr inbounds nuw %struct.DEADLOCK_INFO, ptr %46, i32 0, i32 1
  %48 = load i32, ptr %47, align 4
  %49 = call ptr @GetLockmodeName(i16 noundef zeroext %45, i32 noundef %48)
  %50 = getelementptr inbounds nuw %struct.StringInfoData, ptr %3, i32 0, i32 0
  %51 = load ptr, ptr %50, align 8
  %52 = load i32, ptr %6, align 4
  call void (ptr, ptr, ...) @appendStringInfo(ptr noundef %1, ptr noundef @.str.2, i32 noundef %40, ptr noundef %49, ptr noundef %51, i32 noundef %52)
  call void @llvm.lifetime.end.p0(i64 4, ptr %6) #8
  call void @llvm.lifetime.end.p0(i64 8, ptr %5) #8
  br label %53

53:                                               ; preds = %37
  %54 = load i32, ptr %4, align 4
  %55 = add i32 %54, 1
  store i32 %55, ptr %4, align 4
  br label %8, !llvm.loop !10

56:                                               ; preds = %8
  %57 = getelementptr inbounds nuw %struct.StringInfoData, ptr %1, i32 0, i32 0
  %58 = load ptr, ptr %57, align 8
  %59 = getelementptr inbounds nuw %struct.StringInfoData, ptr %1, i32 0, i32 1
  %60 = load i32, ptr %59, align 8
  call void @appendBinaryStringInfo(ptr noundef %2, ptr noundef %58, i32 noundef %60)
  store i32 0, ptr %4, align 4
  br label %61

61:                                               ; preds = %77, %56
  %62 = load i32, ptr %4, align 4
  %63 = load i32, ptr @nDeadlockDetails, align 4
  %64 = icmp slt i32 %62, %63
  br i1 %64, label %65, label %80

65:                                               ; preds = %61
  call void @llvm.lifetime.start.p0(i64 8, ptr %7) #8
  %66 = load ptr, ptr @deadlockDetails, align 8
  %67 = load i32, ptr %4, align 4
  %68 = sext i32 %67 to i64
  %69 = getelementptr inbounds %struct.DEADLOCK_INFO, ptr %66, i64 %68
  store ptr %69, ptr %7, align 8
  call void @appendStringInfoChar(ptr noundef %2, i8 noundef signext 10)
  %70 = load ptr, ptr %7, align 8
  %71 = getelementptr inbounds nuw %struct.DEADLOCK_INFO, ptr %70, i32 0, i32 2
  %72 = load i32, ptr %71, align 4
  %73 = load ptr, ptr %7, align 8
  %74 = getelementptr inbounds nuw %struct.DEADLOCK_INFO, ptr %73, i32 0, i32 2
  %75 = load i32, ptr %74, align 4
  %76 = call ptr @pgstat_get_backend_current_activity(i32 noundef %75, i1 noundef zeroext false)
  call void (ptr, ptr, ...) @appendStringInfo(ptr noundef %2, ptr noundef @.str.3, i32 noundef %72, ptr noundef %76)
  call void @llvm.lifetime.end.p0(i64 8, ptr %7) #8
  br label %77

77:                                               ; preds = %65
  %78 = load i32, ptr %4, align 4
  %79 = add i32 %78, 1
  store i32 %79, ptr %4, align 4
  br label %61, !llvm.loop !11

80:                                               ; preds = %61
  call void @pgstat_report_deadlock()
  br label %81

81:                                               ; preds = %80
  br i1 true, label %82, label %84

82:                                               ; preds = %81
  %83 = call zeroext i1 @errstart_cold(i32 noundef 21, ptr noundef null) #9
  br i1 %83, label %86, label %96

84:                                               ; preds = %81
  %85 = call zeroext i1 @errstart(i32 noundef 21, ptr noundef null)
  br i1 %85, label %86, label %96

86:                                               ; preds = %84, %82
  %87 = call i32 @errcode(i32 noundef 16908292)
  %88 = call i32 (ptr, ...) @errmsg(ptr noundef @.str.4)
  %89 = getelementptr inbounds nuw %struct.StringInfoData, ptr %1, i32 0, i32 0
  %90 = load ptr, ptr %89, align 8
  %91 = call i32 (ptr, ...) @errdetail_internal(ptr noundef @.str.5, ptr noundef %90)
  %92 = getelementptr inbounds nuw %struct.StringInfoData, ptr %2, i32 0, i32 0
  %93 = load ptr, ptr %92, align 8
  %94 = call i32 (ptr, ...) @errdetail_log(ptr noundef @.str.5, ptr noundef %93)
  %95 = call i32 (ptr, ...) @errhint(ptr noundef @.str.6)
  call void @errfinish(ptr noundef @.str.1, i32 noundef 1135, ptr noundef @__func__.DeadLockReport)
  br label %96

96:                                               ; preds = %86, %84, %82
  unreachable

97:                                               ; No predecessors!
  br label %98

98:                                               ; preds = %97
  call void @llvm.lifetime.end.p0(i64 4, ptr %4) #8
  call void @llvm.lifetime.end.p0(i64 24, ptr %3) #8
  call void @llvm.lifetime.end.p0(i64 24, ptr %2) #8
  call void @llvm.lifetime.end.p0(i64 24, ptr %1) #8
  unreachable
}