; Function Attrs: noreturn nounwind uwtable
define dso_local void @DeadLockReport() local_unnamed_addr #5 {
  %1 = alloca %struct.StringInfoData, align 8
  %2 = alloca %struct.StringInfoData, align 8
  %3 = alloca %struct.StringInfoData, align 8
  call void @llvm.lifetime.start.p0(i64 24, ptr nonnull %1) #11
  call void @llvm.lifetime.start.p0(i64 24, ptr nonnull %2) #11
  call void @llvm.lifetime.start.p0(i64 24, ptr nonnull %3) #11
  call void @initStringInfo(ptr noundef nonnull %1) #11
  call void @initStringInfo(ptr noundef nonnull %2) #11
  call void @initStringInfo(ptr noundef nonnull %3) #11
  %4 = load i32, ptr @nDeadlockDetails, align 4
  %5 = icmp sgt i32 %4, 0
  br i1 %5, label %.lr.ph, label %._crit_edge

.lr.ph:                                           ; preds = %0, %15
  %indvars.iv = phi i64 [ %indvars.iv.next, %15 ], [ 0, %0 ]
  %6 = phi i32 [ %25, %15 ], [ %4, %0 ]
  %7 = load ptr, ptr @deadlockDetails, align 8
  %8 = getelementptr inbounds nuw %struct.DEADLOCK_INFO, ptr %7, i64 %indvars.iv
  %9 = add nsw i32 %6, -1
  %10 = sext i32 %9 to i64
  %11 = icmp slt i64 %indvars.iv, %10
  %12 = getelementptr inbounds nuw i8, ptr %8, i64 44
  %13 = getelementptr inbounds nuw i8, ptr %7, i64 20
  %.015.in = select i1 %11, ptr %12, ptr %13
  %.015 = load i32, ptr %.015.in, align 4
  call void @resetStringInfo(ptr noundef nonnull %3) #11
  call void @DescribeLockTag(ptr noundef nonnull %3, ptr noundef %8) #11
  %.not = icmp eq i64 %indvars.iv, 0
  br i1 %.not, label %15, label %14

14:                                               ; preds = %.lr.ph
  call void @appendStringInfoChar(ptr noundef nonnull %1, i8 noundef signext 10) #11
  br label %15

15:                                               ; preds = %14, %.lr.ph
  %16 = getelementptr inbounds nuw i8, ptr %8, i64 20
  %17 = load i32, ptr %16, align 4
  %18 = getelementptr inbounds nuw i8, ptr %8, i64 15
  %19 = load i8, ptr %18, align 1
  %20 = zext i8 %19 to i16
  %21 = getelementptr inbounds nuw i8, ptr %8, i64 16
  %22 = load i32, ptr %21, align 4
  %23 = call ptr @GetLockmodeName(i16 noundef zeroext %20, i32 noundef %22) #11
  %24 = load ptr, ptr %3, align 8
  call void (ptr, ptr, ...) @appendStringInfo(ptr noundef nonnull %1, ptr noundef nonnull @.str.2, i32 noundef %17, ptr noundef %23, ptr noundef %24, i32 noundef %.015) #11
  %indvars.iv.next = add nuw nsw i64 %indvars.iv, 1
  %25 = load i32, ptr @nDeadlockDetails, align 4
  %26 = sext i32 %25 to i64
  %27 = icmp slt i64 %indvars.iv.next, %26
  br i1 %27, label %.lr.ph, label %._crit_edge, !llvm.loop !8

._crit_edge:                                      ; preds = %15, %0
  %28 = load ptr, ptr %1, align 8
  %29 = getelementptr inbounds nuw i8, ptr %1, i64 8
  %30 = load i32, ptr %29, align 8
  call void @appendBinaryStringInfo(ptr noundef nonnull %2, ptr noundef %28, i32 noundef %30) #11
  %31 = load i32, ptr @nDeadlockDetails, align 4
  %32 = icmp sgt i32 %31, 0
  br i1 %32, label %.lr.ph20, label %._crit_edge21

.lr.ph20:                                         ; preds = %._crit_edge, %.lr.ph20
  %indvars.iv23 = phi i64 [ %indvars.iv.next24, %.lr.ph20 ], [ 0, %._crit_edge ]
  %33 = load ptr, ptr @deadlockDetails, align 8
  call void @appendStringInfoChar(ptr noundef nonnull %2, i8 noundef signext 10) #11
  %34 = getelementptr inbounds nuw %struct.DEADLOCK_INFO, ptr %33, i64 %indvars.iv23, i32 2
  %35 = load i32, ptr %34, align 4
  %36 = call ptr @pgstat_get_backend_current_activity(i32 noundef %35, i1 noundef zeroext false) #11
  call void (ptr, ptr, ...) @appendStringInfo(ptr noundef nonnull %2, ptr noundef nonnull @.str.3, i32 noundef %35, ptr noundef %36) #11
  %indvars.iv.next24 = add nuw nsw i64 %indvars.iv23, 1
  %37 = load i32, ptr @nDeadlockDetails, align 4
  %38 = sext i32 %37 to i64
  %39 = icmp slt i64 %indvars.iv.next24, %38
  br i1 %39, label %.lr.ph20, label %._crit_edge21, !llvm.loop !9

._crit_edge21:                                    ; preds = %.lr.ph20, %._crit_edge
  call void @pgstat_report_deadlock() #11
  %40 = call zeroext i1 @errstart_cold(i32 noundef 21, ptr noundef null) #12
  call void @llvm.assume(i1 %40)
  %41 = call i32 @errcode(i32 noundef 16908292) #11
  %42 = call i32 (ptr, ...) @errmsg(ptr noundef nonnull @.str.4) #11
  %43 = load ptr, ptr %1, align 8
  %44 = call i32 (ptr, ...) @errdetail_internal(ptr noundef nonnull @.str.5, ptr noundef %43) #11
  %45 = load ptr, ptr %2, align 8
  %46 = call i32 (ptr, ...) @errdetail_log(ptr noundef nonnull @.str.5, ptr noundef %45) #11
  %47 = call i32 (ptr, ...) @errhint(ptr noundef nonnull @.str.6) #11
  call void @errfinish(ptr noundef nonnull @.str.1, i32 noundef 1135, ptr noundef nonnull @__func__.DeadLockReport) #11
  unreachable
}